; Function Attrs: mustprogress nofree norecurse nosync nounwind willreturn memory(readwrite, inaccessiblemem: none) uwtable
define void @Saig_StrSimSaveOutput(ptr noundef readonly captures(none) %0, i32 noundef %1) local_unnamed_addr #5 {
  %3 = getelementptr inbounds nuw i8, ptr %0, i64 40
  %4 = load ptr, ptr %3, align 8, !tbaa !3
  %5 = getelementptr i8, ptr %0, i64 8
  %.val = load ptr, ptr %5, align 8, !tbaa !14
  %6 = ptrtoint ptr %.val to i64
  %7 = and i64 %6, -2
  %8 = inttoptr i64 %7 to ptr
  %9 = getelementptr inbounds nuw i8, ptr %8, i64 40
  %10 = load ptr, ptr %9, align 8, !tbaa !3
  %11 = sext i32 %1 to i64
  %12 = getelementptr inbounds i32, ptr %10, i64 %11
  %13 = load i32, ptr %12, align 4, !tbaa !6
  %14 = trunc i64 %6 to i32
  %15 = and i32 %14, 1
  %16 = sub nsw i32 0, %15
  %.sink = xor i32 %13, %16
  %17 = getelementptr inbounds i32, ptr %4, i64 %11
  store i32 %.sink, ptr %17, align 4, !tbaa !6
  ret void
}